target datalayout = "e-m:e-p270:32:32-p271:32:32-p272:64:64-i64:64-i128:128-f80:128-n8:16:32:64-S128"
target triple = "x86_64-pc-linux-gnu"

%struct.VkLayerProperties = type { [256 x i8], i32, i32, [256 x i8] }

@.str.52 = private unnamed_addr constant [28 x i8] c"VK_LAYER_KHRONOS_validation\00", align 1
@vkEnumerateInstanceLayerProperties = internal global ptr null, align 8

; Function Attrs: nounwind uwtable
define internal zeroext i1 @VULKAN_ValidationLayersFound() #0 {
  %1 = alloca i32, align 4
  %2 = alloca i32, align 4
  %3 = alloca i8, align 1
  %4 = alloca ptr, align 8
  call void @llvm.lifetime.start.p0(i64 4, ptr %1) #6
  store i32 0, ptr %1, align 4
  call void @llvm.lifetime.start.p0(i64 4, ptr %2) #6
  call void @llvm.lifetime.start.p0(i64 1, ptr %3) #6
  store i8 0, ptr %3, align 1
  %5 = load ptr, ptr @vkEnumerateInstanceLayerProperties, align 8
  %6 = call i32 %5(ptr noundef %1, ptr noundef null)
  %7 = load i32, ptr %1, align 4
  %8 = icmp ugt i32 %7, 0
  br i1 %8, label %9, label %36

9:                                                ; preds = %0
  call void @llvm.lifetime.start.p0(i64 8, ptr %4) #6
  %10 = load i32, ptr %1, align 4
  %11 = zext i32 %10 to i64
  %12 = call noalias ptr @SDL_calloc_REAL(i64 noundef %11, i64 noundef 520) #8
  store ptr %12, ptr %4, align 8
  %13 = load ptr, ptr @vkEnumerateInstanceLayerProperties, align 8
  %14 = load ptr, ptr %4, align 8
  %15 = call i32 %13(ptr noundef %1, ptr noundef %14)
  store i32 0, ptr %2, align 4
  br label %16

16:                                               ; preds = %31, %9
  %17 = load i32, ptr %2, align 4
  %18 = load i32, ptr %1, align 4
  %19 = icmp ult i32 %17, %18
  br i1 %19, label %20, label %34

20:                                               ; preds = %16
  %21 = load ptr, ptr %4, align 8
  %22 = load i32, ptr %2, align 4
  %23 = zext i32 %22 to i64
  %24 = getelementptr inbounds nuw %struct.VkLayerProperties, ptr %21, i64 %23
  %25 = getelementptr inbounds nuw %struct.VkLayerProperties, ptr %24, i32 0, i32 0
  %26 = getelementptr inbounds [256 x i8], ptr %25, i64 0, i64 0
  %27 = call i32 @SDL_strcmp_REAL(ptr noundef @.str.52, ptr noundef %26)
  %28 = icmp ne i32 %27, 0
  br i1 %28, label %30, label %29

29:                                               ; preds = %20
  store i8 1, ptr %3, align 1
  br label %34

30:                                               ; preds = %20
  br label %31

31:                                               ; preds = %30
  %32 = load i32, ptr %2, align 4
  %33 = add i32 %32, 1
  store i32 %33, ptr %2, align 4
  br label %16, !llvm.loop !40

34:                                               ; preds = %29, %16
  %35 = load ptr, ptr %4, align 8
  call void @SDL_free_REAL(ptr noundef %35)
  call void @llvm.lifetime.end.p0(i64 8, ptr %4) #6
  br label %36

36:                                               ; preds = %34, %0
  %37 = load i8, ptr %3, align 1, !range !3, !noundef !4
  %38 = trunc i8 %37 to i1
  call void @llvm.lifetime.end.p0(i64 1, ptr %3) #6
  call void @llvm.lifetime.end.p0(i64 4, ptr %2) #6
  call void @llvm.lifetime.end.p0(i64 4, ptr %1) #6
  ret i1 %38
}