; Function Attrs: nounwind uwtable
define internal fastcc noundef zeroext i1 @VULKAN_ValidationLayersFound() unnamed_addr #0 {
  %1 = alloca i32, align 4
  call void @llvm.lifetime.start.p0(i64 4, ptr nonnull %1) #8
  store i32 0, ptr %1, align 4
  %2 = load ptr, ptr @vkEnumerateInstanceLayerProperties, align 8
  %3 = call i32 %2(ptr noundef nonnull %1, ptr noundef null) #8
  %4 = load i32, ptr %1, align 4
  %.not = icmp eq i32 %4, 0
  br i1 %.not, label %17, label %5

5:                                                ; preds = %0
  %6 = zext i32 %4 to i64
  %7 = call noalias ptr @SDL_calloc_REAL(i64 noundef %6, i64 noundef 520) #11
  %8 = load ptr, ptr @vkEnumerateInstanceLayerProperties, align 8
  %9 = call i32 %8(ptr noundef nonnull %1, ptr noundef %7) #8
  %10 = load i32, ptr %1, align 4
  %.not12 = icmp eq i32 %10, 0
  br i1 %.not12, label %._crit_edge, label %.lr.ph

11:                                               ; preds = %.lr.ph
  %indvars.iv.next = add nuw nsw i64 %indvars.iv, 1
  %12 = load i32, ptr %1, align 4
  %13 = zext i32 %12 to i64
  %14 = icmp samesign ult i64 %indvars.iv.next, %13
  br i1 %14, label %.lr.ph, label %._crit_edge, !llvm.loop !61

.lr.ph:                                           ; preds = %5, %11
  %indvars.iv = phi i64 [ %indvars.iv.next, %11 ], [ 0, %5 ]
  %15 = getelementptr inbounds nuw %struct.VkLayerProperties, ptr %7, i64 %indvars.iv
  %16 = call i32 @SDL_strcmp_REAL(ptr noundef nonnull @.str.52, ptr noundef %15) #8
  %.not8 = icmp eq i32 %16, 0
  br i1 %.not8, label %._crit_edge, label %11

._crit_edge:                                      ; preds = %11, %.lr.ph, %5
  %.lcssa = phi i1 [ false, %5 ], [ %.not8, %.lr.ph ], [ %.not8, %11 ]
  call void @SDL_free_REAL(ptr noundef %7) #8
  br label %17

17:                                               ; preds = %._crit_edge, %0
  %.06 = phi i1 [ %.lcssa, %._crit_edge ], [ false, %0 ]
  call void @llvm.lifetime.end.p0(i64 4, ptr nonnull %1) #8
  ret i1 %.06
}